; Function Attrs: mustprogress nounwind uwtable
define dso_local i64 @_ZNK4llvm9SourceMgr16getLineAndColumnENS_5SMLocEj(ptr noundef nonnull readonly align 8 captures(none) dereferenceable(64) %0, ptr %1, i32 noundef %2) local_unnamed_addr #0 align 2 {
  %4 = alloca %"class.llvm::StringRef", align 8
  %.not = icmp eq i32 %2, 0
  %.pre = load ptr, ptr %0, align 8
  br i1 %.not, label %5, label %_ZNK4llvm9SourceMgr23FindBufferContainingLocENS_5SMLocE.exit

5:                                                ; preds = %3
  %6 = getelementptr inbounds nuw i8, ptr %0, i64 8
  %7 = load ptr, ptr %6, align 8
  %8 = ptrtoint ptr %7 to i64
  %9 = ptrtoint ptr %.pre to i64
  %10 = sub i64 %8, %9
  %11 = sdiv exact i64 %10, 24
  %12 = and i64 %11, 4294967295
  %.not12.i = icmp eq i64 %12, 0
  br i1 %.not12.i, label %_ZNK4llvm9SourceMgr23FindBufferContainingLocENS_5SMLocE.exit, label %.lr.ph.i

.lr.ph.i:                                         ; preds = %5, %23
  %indvars.iv.i = phi i64 [ %indvars.iv.next.i, %23 ], [ 0, %5 ]
  %13 = getelementptr inbounds nuw %"struct.llvm::SourceMgr::SrcBuffer", ptr %.pre, i64 %indvars.iv.i
  %14 = load ptr, ptr %13, align 8
  %15 = getelementptr inbounds nuw i8, ptr %14, i64 8
  %16 = load ptr, ptr %15, align 8
  %.not8.i = icmp ult ptr %1, %16
  br i1 %.not8.i, label %23, label %17

17:                                               ; preds = %.lr.ph.i
  %18 = getelementptr inbounds nuw i8, ptr %14, i64 16
  %19 = load ptr, ptr %18, align 8
  %.not9.i = icmp ugt ptr %1, %19
  br i1 %.not9.i, label %23, label %20

20:                                               ; preds = %17
  %21 = trunc nuw i64 %indvars.iv.i to i32
  %22 = add i32 %21, 1
  br label %_ZNK4llvm9SourceMgr23FindBufferContainingLocENS_5SMLocE.exit

23:                                               ; preds = %17, %.lr.ph.i
  %indvars.iv.next.i = add nuw nsw i64 %indvars.iv.i, 1
  %.not.i = icmp eq i64 %indvars.iv.next.i, %12
  br i1 %.not.i, label %_ZNK4llvm9SourceMgr23FindBufferContainingLocENS_5SMLocE.exit, label %.lr.ph.i, !llvm.loop !9

_ZNK4llvm9SourceMgr23FindBufferContainingLocENS_5SMLocE.exit: ; preds = %23, %20, %5, %3
  %.0 = phi i32 [ %2, %3 ], [ %22, %20 ], [ 0, %5 ], [ 0, %23 ]
  %24 = add i32 %.0, -1
  %25 = zext i32 %24 to i64
  %26 = getelementptr inbounds nuw %"struct.llvm::SourceMgr::SrcBuffer", ptr %.pre, i64 %25
  %27 = tail call noundef i32 @_ZNK4llvm9SourceMgr9SrcBuffer13getLineNumberEPKc(ptr noundef nonnull align 8 dereferenceable(24) %26, ptr noundef %1)
  %28 = load ptr, ptr %26, align 8
  %29 = getelementptr inbounds nuw i8, ptr %28, i64 8
  %30 = load ptr, ptr %29, align 8
  %31 = ptrtoint ptr %1 to i64
  %32 = ptrtoint ptr %30 to i64
  %33 = sub i64 %31, %32
  store ptr %30, ptr %4, align 8
  %34 = getelementptr inbounds nuw i8, ptr %4, i64 8
  store i64 %33, ptr %34, align 8
  %35 = call noundef i64 @_ZNK4llvm9StringRef12find_last_ofES0_m(ptr noundef nonnull align 8 dereferenceable(16) %4, ptr nonnull @.str.1, i64 2, i64 noundef -1) #17
  %36 = sub i64 %33, %35
  %.sroa.218.0.insert.ext = shl i64 %36, 32
  %.sroa.017.0.insert.ext = zext i32 %27 to i64
  %.sroa.017.0.insert.insert = or disjoint i64 %.sroa.218.0.insert.ext, %.sroa.017.0.insert.ext
  ret i64 %.sroa.017.0.insert.insert
}